target datalayout = "e-m:e-p270:32:32-p271:32:32-p272:64:64-i64:64-i128:128-f80:128-n8:16:32:64-S128"
target triple = "x86_64-pc-linux-gnu"

; Function Attrs: mustprogress nounwind uwtable
define dso_local noundef zeroext i1 @_ZN10V3ParseImp15isStrengthTokenEi(i32 noundef %0) #4 align 2 {
  %2 = alloca i32, align 4
  store i32 %0, ptr %2, align 4, !tbaa !40
  %3 = load i32, ptr %2, align 4, !tbaa !40
  %4 = icmp eq i32 %3, 269
  br i1 %4, label %35, label %5

5:                                                ; preds = %1
  %6 = load i32, ptr %2, align 4, !tbaa !40
  %7 = icmp eq i32 %6, 514
  br i1 %7, label %35, label %8

8:                                                ; preds = %5
  %9 = load i32, ptr %2, align 4, !tbaa !40
  %10 = icmp eq i32 %9, 515
  br i1 %10, label %35, label %11

11:                                               ; preds = %8
  %12 = load i32, ptr %2, align 4, !tbaa !40
  %13 = icmp eq i32 %12, 510
  br i1 %13, label %35, label %14

14:                                               ; preds = %11
  %15 = load i32, ptr %2, align 4, !tbaa !40
  %16 = icmp eq i32 %15, 511
  br i1 %16, label %35, label %17

17:                                               ; preds = %14
  %18 = load i32, ptr %2, align 4, !tbaa !40
  %19 = icmp eq i32 %18, 471
  br i1 %19, label %35, label %20

20:                                               ; preds = %17
  %21 = load i32, ptr %2, align 4, !tbaa !40
  %22 = icmp eq i32 %21, 472
  br i1 %22, label %35, label %23

23:                                               ; preds = %20
  %24 = load i32, ptr %2, align 4, !tbaa !40
  %25 = icmp eq i32 %24, 563
  br i1 %25, label %35, label %26

26:                                               ; preds = %23
  %27 = load i32, ptr %2, align 4, !tbaa !40
  %28 = icmp eq i32 %27, 564
  br i1 %28, label %35, label %29

29:                                               ; preds = %26
  %30 = load i32, ptr %2, align 4, !tbaa !40
  %31 = icmp eq i32 %30, 415
  br i1 %31, label %35, label %32

32:                                               ; preds = %29
  %33 = load i32, ptr %2, align 4, !tbaa !40
  %34 = icmp eq i32 %33, 416
  br label %35

35:                                               ; preds = %32, %29, %26, %23, %20, %17, %14, %11, %8, %5, %1
  %36 = phi i1 [ true, %29 ], [ true, %26 ], [ true, %23 ], [ true, %20 ], [ true, %17 ], [ true, %14 ], [ true, %11 ], [ true, %8 ], [ true, %5 ], [ true, %1 ], [ %34, %32 ]
  ret i1 %36
}