; Function Attrs: mustprogress nofree norecurse nosync nounwind willreturn memory(none) uwtable
define dso_local noundef zeroext i1 @_ZN10V3ParseImp15isStrengthTokenEi(i32 noundef %0) #16 align 2 {
  switch i32 %0, label %2 [
    i32 564, label %switch.edge
    i32 563, label %switch.edge
    i32 515, label %switch.edge
    i32 514, label %switch.edge
    i32 511, label %switch.edge
    i32 510, label %switch.edge
    i32 472, label %switch.edge
    i32 471, label %switch.edge
    i32 415, label %switch.edge
    i32 269, label %switch.edge
    i32 416, label %switch.edge
  ]

2:                                                ; preds = %1
  br label %switch.edge

switch.edge:                                      ; preds = %1, %1, %1, %1, %1, %1, %1, %1, %1, %1, %1, %2
  %3 = phi i1 [ true, %1 ], [ false, %2 ], [ true, %1 ], [ true, %1 ], [ true, %1 ], [ true, %1 ], [ true, %1 ], [ true, %1 ], [ true, %1 ], [ true, %1 ], [ true, %1 ], [ true, %1 ]
  ret i1 %3
}